Certificate:
    Data:
        Version: 3 (0x2)
        Serial Number:
            a0:f1:87:47:58:95:d2:ad
    Signature Algorithm: sha256WithRSAEncryption
        Issuer: C=US, ST=Washington D.C., L=Washington, O=AliceCA Ltd., OU=CA, CN=www.ca_alice.com/emailAddress=ca@ca_alice.com
        Validity
            Not Before: Mar 19 04:26:19 2017 GMT
            Not After : Mar 19 04:26:19 2018 GMT
        Subject: C=US, ST=Boston D.C., L=Boston, O=Alice Ltd., OU=Original Server, CN=alice.com/emailAddress=orig@alice.com
        Subject Public Key Info:
            Public Key Algorithm: rsaEncryption
                Public-Key: (2048 bit)
                Modulus:
                    00:bf:52:6b:ae:25:7e:81:b3:de:da:fe:8c:b4:e2:
                    11:ed:86:1b:39:15:5a:be:f7:f2:f0:19:f2:12:1d:
                    bb:5a:c2:25:05:81:69:06:d4:db:8a:e0:b6:a6:20:
                    83:16:b9:6e:11:2c:4b:c2:b0:0b:c2:84:ae:f9:f0:
                    4b:a2:37:ec:4e:04:6e:3c:cb:71:87:3f:18:d1:4b:
                    bb:2e:a4:cd:9e:d9:fe:62:83:1c:f4:13:7d:82:b3:
                    ec:bb:34:2a:92:51:72:a9:31:d2:05:67:e0:90:29:
                    4a:c6:c8:d4:00:b8:72:b2:53:08:b8:10:3d:c1:71:
                    82:14:d5:b6:de:36:43:75:38:98:86:52:d8:41:4e:
                    0a:96:bb:2c:93:0e:6d:c9:05:3e:9a:38:63:a3:37:
                    62:53:ed:2d:e2:5f:df:44:f4:35:4d:be:77:56:e2:
                    e2:83:32:95:3e:20:e8:55:64:64:99:ab:5e:69:d3:
                    7c:93:89:77:69:4a:c5:9a:56:e6:0e:5c:cf:3b:3f:
                    d4:7a:bb:fe:2a:7e:35:93:ee:b7:58:36:f8:0f:30:
                    50:de:d7:aa:3a:b3:01:f7:04:52:32:3c:9f:e6:3f:
                    65:ca:6a:c1:93:40:d9:e4:58:da:59:75:e1:ab:27:
                    87:e5:5d:92:db:03:d2:a7:02:1f:e1:ea:af:dd:23:
                    de:b5
                Exponent: 65537 (0x10001)
        X509v3 extensions:
            X509v3 Basic Constraints: 
                CA:FALSE
            Netscape Comment: 
                OpenSSL Generated Certificate
            X509v3 Subject Key Identifier: 
                0C:EC:5E:1C:B1:94:7E:C1:A9:9C:08:0E:CB:6F:9C:A1:28:0B:5B:D9
            X509v3 Authority Key Identifier: 
                keyid:6C:0B:A7:3F:D3:31:77:92:98:1E:9D:EF:F0:91:72:DB:05:B0:DD:08

            Authority Information Access: 
                OCSP - URI:http://147.46.215.152:5555

    Signature Algorithm: sha256WithRSAEncryption
         2b:42:6d:8c:a3:18:32:3e:08:ce:2a:ba:f7:0b:cd:7f:a1:05:
         07:5f:2d:8d:62:4f:c6:25:f7:04:cc:42:22:8f:33:08:6d:7e:
         a7:be:e7:46:38:9d:04:85:22:81:c1:df:25:1e:44:cc:8a:65:
         0c:d5:23:2c:a5:87:56:6d:a5:3a:74:49:ee:26:30:b7:6c:ee:
         43:f6:92:93:9f:ef:73:9d:6c:1a:2d:1d:ad:47:a7:59:0b:0d:
         b3:2e:80:f2:f4:77:8d:ec:e0:4b:b6:e5:86:6f:68:9c:0d:d6:
         e0:ec:83:58:5f:60:33:bd:e4:3b:97:af:c0:21:b1:d3:db:51:
         25:93:05:f5:c5:41:2e:22:7f:77:b4:34:e9:81:9d:8c:e5:b0:
         20:b9:d7:15:dd:85:e6:4d:07:74:f8:e6:78:62:e4:79:df:50:
         29:4d:c3:80:2e:62:26:40:18:2c:40:d4:c8:0f:09:6f:ef:4c:
         d3:fe:e0:98:57:2a:8e:d4:ca:15:f9:37:b6:76:71:30:14:ab:
         b6:dd:9c:8d:c7:6c:27:6e:d7:6f:3b:9a:65:59:c0:d1:be:a0:
         e6:06:cb:38:2f:63:ed:a2:fb:f3:fe:8f:f5:f7:b4:82:33:ef:
         f1:5b:e5:49:fa:52:ba:ec:17:50:af:75:26:e2:d6:35:dd:c9:
         3a:2d:68:de
-----BEGIN CERTIFICATE-----
MIIEazCCA1OgAwIBAgIJAKDxh0dYldKtMA0GCSqGSIb3DQEBCwUAMIGbMQswCQYD
VQQGEwJVUzEYMBYGA1UECAwPV2FzaGluZ3RvbiBELkMuMRMwEQYDVQQHDApXYXNo
aW5ndG9uMRUwEwYDVQQKDAxBbGljZUNBIEx0ZC4xCzAJBgNVBAsMAkNBMRkwFwYD
VQQDDBB3d3cuY2FfYWxpY2UuY29tMR4wHAYJKoZIhvcNAQkBFg9jYUBjYV9hbGlj
ZS5jb20wHhcNMTcwMzE5MDQyNjE5WhcNMTgwMzE5MDQyNjE5WjCBljELMAkGA1UE
BhMCVVMxFDASBgNVBAgMC0Jvc3RvbiBELkMuMQ8wDQYDVQQHDAZCb3N0b24xEzAR
BgNVBAoMCkFsaWNlIEx0ZC4xGDAWBgNVBAsMD09yaWdpbmFsIFNlcnZlcjESMBAG
A1UEAwwJYWxpY2UuY29tMR0wGwYJKoZIhvcNAQkBFg5vcmlnQGFsaWNlLmNvbTCC
ASIwDQYJKoZIhvcNAQEBBQADggEPADCCAQoCggEBAL9Sa64lfoGz3tr+jLTiEe2G
GzkVWr738vAZ8hIdu1rCJQWBaQbU24rgtqYggxa5bhEsS8KwC8KErvnwS6I37E4E
bjzLcYc/GNFLuy6kzZ7Z/mKDHPQTfYKz7Ls0KpJRcqkx0gVn4JApSsbI1AC4crJT
CLgQPcFxghTVtt42Q3U4mIZS2EFOCpa7LJMObckFPpo4Y6M3YlPtLeJf30T0NU2+
d1bi4oMylT4g6FVkZJmrXmnTfJOJd2lKxZpW5g5czzs/1Hq7/ip+NZPut1g2+A8w
UN7XqjqzAfcEUjI8n+Y/ZcpqwZNA2eRY2ll14asnh+VdktsD0qcCH+Hqr90j3rUC
AwEAAaOBtDCBsTAJBgNVHRMEAjAAMCwGCWCGSAGG+EIBDQQfFh1PcGVuU1NMIEdl
bmVyYXRlZCBDZXJ0aWZpY2F0ZTAdBgNVHQ4EFgQUDOxeHLGUfsGpnAgOy2+coSgL
W9kwHwYDVR0jBBgwFoAUbAunP9Mxd5KYHp3v8JFy2wWw3QgwNgYIKwYBBQUHAQEE
KjAoMCYGCCsGAQUFBzABhhpodHRwOi8vMTQ3LjQ2LjIxNS4xNTI6NTU1NTANBgkq
hkiG9w0BAQsFAAOCAQEAK0JtjKMYMj4Iziq69wvNf6EFB18tjWJPxiX3BMxCIo8z
CG1+p77nRjidBIUigcHfJR5EzIplDNUjLKWHVm2lOnRJ7iYwt2zuQ/aSk5/vc51s
Gi0drUenWQsNsy6A8vR3jezgS7blhm9onA3W4OyDWF9gM73kO5evwCGx09tRJZMF
9cVBLiJ/d7Q06YGdjOWwILnXFd2F5k0HdPjmeGLked9QKU3DgC5iJkAYLEDUyA8J
b+9M0/7gmFcqjtTKFfk3tnZxMBSrtt2cjcdsJ27XbzuaZVnA0b6g5gbLOC9j7aL7
8/6P9fe0gjPv8VvlSfpSuuwXUK91JuLWNd3JOi1o3g==
-----END CERTIFICATE-----
